target datalayout = "e-m:e-p270:32:32-p271:32:32-p272:64:64-i64:64-i128:128-f80:128-n8:16:32:64-S128"
target triple = "x86_64-pc-linux-gnu"

%class.GrowableArrayBase = type { i32, i32 }
%class.GrowableArrayMetadata = type { i64 }
%class.GrowableArray.2 = type { %class.GrowableArrayWithAllocator.3, %class.GrowableArrayMetadata }
%class.GrowableArrayWithAllocator.3 = type { %class.GrowableArrayView.4 }
%class.GrowableArrayView.4 = type { %class.GrowableArrayBase, ptr }

@_ZN24JvmtiCachedClassFieldMap11_class_listE = hidden global ptr null, align 8

; Function Attrs: mustprogress nounwind uwtable
define linkonce_odr hidden noundef i32 @_ZN21CountLeadingZerosImplIiLm4EE4doitEi(i32 noundef %0) #1 comdat align 2 {
  %2 = alloca i32, align 4
  store i32 %0, ptr %2, align 4
  %3 = load i32, ptr %2, align 4
  %4 = call i32 @llvm.ctlz.i32(i32 %3, i1 true)
  ret i32 %4
}

; Function Attrs: mustprogress nounwind uwtable
define linkonce_odr hidden noundef i32 @_Z19count_leading_zerosIiEjT_(i32 noundef %0) #1 comdat {
  %2 = alloca i32, align 4
  store i32 %0, ptr %2, align 4
  %3 = load i32, ptr %2, align 4
  %4 = call noundef i32 @_ZN21CountLeadingZerosImplIiLm4EE4doitEi(i32 noundef %3)
  ret i32 %4
}

; Function Attrs: mustprogress nounwind uwtable
define linkonce_odr hidden noundef i32 @_Z5log2iIiTnNSt9enable_ifIXcvbsr3std11is_integralIT_EE5valueEiE4typeELi0EEiS1_(i32 noundef %0) #1 comdat {
  %2 = alloca i32, align 4
  %3 = alloca i32, align 4
  store i32 %0, ptr %2, align 4
  store i32 32, ptr %3, align 4
  %4 = load i32, ptr %2, align 4
  %5 = call noundef i32 @_Z19count_leading_zerosIiEjT_(i32 noundef %4)
  %6 = sub i32 32, %5
  %7 = sub i32 %6, 1
  ret i32 %7
}

; Function Attrs: mustprogress nounwind uwtable
define linkonce_odr hidden noundef zeroext i1 @_Z13is_power_of_2IiTnNSt9enable_ifIXcvbsr3std11is_integralIT_EE5valueEiE4typeELi0EEbS1_(i32 noundef %0) #1 comdat {
  %2 = alloca i32, align 4
  store i32 %0, ptr %2, align 4
  %3 = load i32, ptr %2, align 4
  %4 = icmp sgt i32 %3, 0
  br i1 %4, label %5, label %11

5:                                                ; preds = %1
  %6 = load i32, ptr %2, align 4
  %7 = load i32, ptr %2, align 4
  %8 = sub nsw i32 %7, 1
  %9 = and i32 %6, %8
  %10 = icmp eq i32 %9, 0
  br label %11

11:                                               ; preds = %5, %1
  %12 = phi i1 [ false, %1 ], [ %10, %5 ]
  ret i1 %12
}

; Function Attrs: mustprogress nounwind uwtable
define linkonce_odr hidden noundef i32 @_Z19round_up_power_of_2IiTnNSt9enable_ifIXcvbsr3std11is_integralIT_EE5valueEiE4typeELi0EES1_S1_(i32 noundef %0) #1 comdat {
  %2 = alloca i32, align 4
  %3 = alloca i32, align 4
  store i32 %0, ptr %3, align 4
  %4 = load i32, ptr %3, align 4
  %5 = call noundef zeroext i1 @_Z13is_power_of_2IiTnNSt9enable_ifIXcvbsr3std11is_integralIT_EE5valueEiE4typeELi0EEbS1_(i32 noundef %4)
  br i1 %5, label %6, label %8

6:                                                ; preds = %1
  %7 = load i32, ptr %3, align 4
  store i32 %7, ptr %2, align 4
  br label %13

8:                                                ; preds = %1
  %9 = load i32, ptr %3, align 4
  %10 = call noundef i32 @_Z5log2iIiTnNSt9enable_ifIXcvbsr3std11is_integralIT_EE5valueEiE4typeELi0EEiS1_(i32 noundef %9)
  %11 = add nsw i32 %10, 1
  %12 = shl i32 1, %11
  store i32 %12, ptr %2, align 4
  br label %13

13:                                               ; preds = %8, %6
  %14 = load i32, ptr %2, align 4
  ret i32 %14
}

; Function Attrs: mustprogress nounwind uwtable
define linkonce_odr hidden noundef i32 @_Z15next_power_of_2IiTnNSt9enable_ifIXcvbsr3std11is_integralIT_EE5valueEiE4typeELi0EES1_S1_(i32 noundef %0) #1 comdat {
  %2 = alloca i32, align 4
  store i32 %0, ptr %2, align 4
  %3 = load i32, ptr %2, align 4
  %4 = add nsw i32 %3, 1
  %5 = call noundef i32 @_Z19round_up_power_of_2IiTnNSt9enable_ifIXcvbsr3std11is_integralIT_EE5valueEiE4typeELi0EES1_S1_(i32 noundef %4)
  ret i32 %5
}

; Function Attrs: mustprogress nounwind uwtable
define linkonce_odr hidden void @_ZN17GrowableArrayBaseC2Eii(ptr noundef nonnull align 4 dereferenceable(8) %0, i32 noundef %1, i32 noundef %2) unnamed_addr #1 comdat align 2 {
  %4 = alloca ptr, align 8
  %5 = alloca i32, align 4
  %6 = alloca i32, align 4
  store ptr %0, ptr %4, align 8
  store i32 %1, ptr %5, align 4
  store i32 %2, ptr %6, align 4
  %7 = load ptr, ptr %4, align 8
  %8 = getelementptr inbounds %class.GrowableArrayBase, ptr %7, i32 0, i32 0
  %9 = load i32, ptr %6, align 4
  store i32 %9, ptr %8, align 4
  %10 = getelementptr inbounds %class.GrowableArrayBase, ptr %7, i32 0, i32 1
  %11 = load i32, ptr %5, align 4
  store i32 %11, ptr %10, align 4
  ret void
}

; Function Attrs: mustprogress nounwind uwtable
define linkonce_odr hidden void @_ZN26GrowableArrayWithAllocatorIP13InstanceKlass13GrowableArrayIS1_EE4growEi(ptr noundef nonnull align 8 dereferenceable(16) %0, i32 noundef %1) #1 comdat align 2 {
  %3 = alloca ptr, align 8
  %4 = alloca i32, align 4
  store ptr %0, ptr %3, align 8
  store i32 %1, ptr %4, align 4
  %5 = load ptr, ptr %3, align 8
  %6 = load i32, ptr %4, align 4
  %7 = call noundef i32 @_Z15next_power_of_2IiTnNSt9enable_ifIXcvbsr3std11is_integralIT_EE5valueEiE4typeELi0EES1_S1_(i32 noundef %6)
  call void @_ZN26GrowableArrayWithAllocatorIP13InstanceKlass13GrowableArrayIS1_EE9expand_toEi(ptr noundef nonnull align 8 dereferenceable(16) %5, i32 noundef %7)
  ret void
}

; Function Attrs: mustprogress nounwind uwtable
define linkonce_odr hidden noundef i64 @_ZN21GrowableArrayMetadata4bitsE8MEMFLAGS(i8 noundef zeroext %0) #1 comdat align 2 {
  %2 = alloca i8, align 1
  store i8 %0, ptr %2, align 1
  %3 = load i8, ptr %2, align 1
  %4 = zext i8 %3 to i64
  %5 = shl i64 %4, 1
  %6 = or i64 %5, 1
  ret i64 %6
}

; Function Attrs: mustprogress nounwind uwtable
define linkonce_odr hidden void @_ZN17GrowableArrayViewIP13InstanceKlassEC2EPS1_ii(ptr noundef nonnull align 8 dereferenceable(16) %0, ptr noundef %1, i32 noundef %2, i32 noundef %3) unnamed_addr #1 comdat align 2 {
  %5 = alloca ptr, align 8
  %6 = alloca ptr, align 8
  %7 = alloca i32, align 4
  %8 = alloca i32, align 4
  store ptr %0, ptr %5, align 8
  store ptr %1, ptr %6, align 8
  store i32 %2, ptr %7, align 4
  store i32 %3, ptr %8, align 4
  %9 = load ptr, ptr %5, align 8
  %10 = load i32, ptr %7, align 4
  %11 = load i32, ptr %8, align 4
  call void @_ZN17GrowableArrayBaseC2Eii(ptr noundef nonnull align 4 dereferenceable(8) %9, i32 noundef %10, i32 noundef %11)
  %12 = getelementptr inbounds %class.GrowableArrayView.4, ptr %9, i32 0, i32 1
  %13 = load ptr, ptr %6, align 8
  store ptr %13, ptr %12, align 8
  ret void
}

; Function Attrs: mustprogress nounwind uwtable
define linkonce_odr hidden noundef i32 @_ZN26GrowableArrayWithAllocatorIP13InstanceKlass13GrowableArrayIS1_EE6appendERKS1_(ptr noundef nonnull align 8 dereferenceable(16) %0, ptr noundef nonnull align 8 dereferenceable(8) %1) #1 comdat align 2 {
  %3 = alloca ptr, align 8
  %4 = alloca ptr, align 8
  %5 = alloca i32, align 4
  store ptr %0, ptr %3, align 8
  store ptr %1, ptr %4, align 8
  %6 = load ptr, ptr %3, align 8
  %7 = getelementptr inbounds %class.GrowableArrayBase, ptr %6, i32 0, i32 0
  %8 = load i32, ptr %7, align 8
  %9 = getelementptr inbounds %class.GrowableArrayBase, ptr %6, i32 0, i32 1
  %10 = load i32, ptr %9, align 4
  %11 = icmp eq i32 %8, %10
  br i1 %11, label %12, label %15

12:                                               ; preds = %2
  %13 = getelementptr inbounds %class.GrowableArrayBase, ptr %6, i32 0, i32 0
  %14 = load i32, ptr %13, align 8
  call void @_ZN26GrowableArrayWithAllocatorIP13InstanceKlass13GrowableArrayIS1_EE4growEi(ptr noundef nonnull align 8 dereferenceable(16) %6, i32 noundef %14)
  br label %15

15:                                               ; preds = %12, %2
  %16 = getelementptr inbounds %class.GrowableArrayBase, ptr %6, i32 0, i32 0
  %17 = load i32, ptr %16, align 8
  %18 = add nsw i32 %17, 1
  store i32 %18, ptr %16, align 8
  store i32 %17, ptr %5, align 4
  %19 = load ptr, ptr %4, align 8
  %20 = load ptr, ptr %19, align 8
  %21 = getelementptr inbounds %class.GrowableArrayView.4, ptr %6, i32 0, i32 1
  %22 = load ptr, ptr %21, align 8
  %23 = load i32, ptr %5, align 4
  %24 = sext i32 %23 to i64
  %25 = getelementptr inbounds ptr, ptr %22, i64 %24
  store ptr %20, ptr %25, align 8
  %26 = load i32, ptr %5, align 4
  ret i32 %26
}

; Function Attrs: mustprogress nounwind uwtable
define linkonce_odr hidden void @_ZNK13GrowableArrayIP13InstanceKlassE11init_checksEv(ptr noundef nonnull align 8 dereferenceable(24) %0) #1 comdat align 2 {
  %2 = alloca ptr, align 8
  store ptr %0, ptr %2, align 8
  ret void
}

; Function Attrs: mustprogress nounwind uwtable
define linkonce_odr hidden void @_ZN21GrowableArrayMetadataC2E8MEMFLAGS(ptr noundef nonnull align 8 dereferenceable(8) %0, i8 noundef zeroext %1) unnamed_addr #1 comdat align 2 {
  %3 = alloca ptr, align 8
  %4 = alloca i8, align 1
  store ptr %0, ptr %3, align 8
  store i8 %1, ptr %4, align 1
  %5 = load ptr, ptr %3, align 8
  %6 = getelementptr inbounds %class.GrowableArrayMetadata, ptr %5, i32 0, i32 0
  %7 = load i8, ptr %4, align 1
  %8 = call noundef i64 @_ZN21GrowableArrayMetadata4bitsE8MEMFLAGS(i8 noundef zeroext %7)
  store i64 %8, ptr %6, align 8
  ret void
}

; Function Attrs: mustprogress nounwind uwtable
define linkonce_odr hidden void @_ZN26GrowableArrayWithAllocatorIP13InstanceKlass13GrowableArrayIS1_EEC2EPS1_i(ptr noundef nonnull align 8 dereferenceable(16) %0, ptr noundef %1, i32 noundef %2) unnamed_addr #1 comdat align 2 {
  %4 = alloca ptr, align 8
  %5 = alloca ptr, align 8
  %6 = alloca i32, align 4
  %7 = alloca i32, align 4
  store ptr %0, ptr %4, align 8
  store ptr %1, ptr %5, align 8
  store i32 %2, ptr %6, align 4
  %8 = load ptr, ptr %4, align 8
  %9 = load ptr, ptr %5, align 8
  %10 = load i32, ptr %6, align 4
  call void @_ZN17GrowableArrayViewIP13InstanceKlassEC2EPS1_ii(ptr noundef nonnull align 8 dereferenceable(16) %8, ptr noundef %9, i32 noundef %10, i32 noundef 0)
  store i32 0, ptr %7, align 4
  br label %11

11:                                               ; preds = %20, %3
  %12 = load i32, ptr %7, align 4
  %13 = load i32, ptr %6, align 4
  %14 = icmp slt i32 %12, %13
  br i1 %14, label %15, label %23

15:                                               ; preds = %11
  %16 = load ptr, ptr %5, align 8
  %17 = load i32, ptr %7, align 4
  %18 = sext i32 %17 to i64
  %19 = getelementptr inbounds ptr, ptr %16, i64 %18
  store ptr null, ptr %19, align 8
  br label %20

20:                                               ; preds = %15
  %21 = load i32, ptr %7, align 4
  %22 = add nsw i32 %21, 1
  store i32 %22, ptr %7, align 4
  br label %11, !llvm.loop !77

23:                                               ; preds = %11
  ret void
}

; Function Attrs: mustprogress nounwind uwtable
define linkonce_odr hidden noundef ptr @_ZN13GrowableArrayIP13InstanceKlassE8allocateEi8MEMFLAGS(i32 noundef %0, i8 noundef zeroext %1) #1 comdat align 2 {
  %3 = alloca i32, align 4
  %4 = alloca i8, align 1
  store i32 %0, ptr %3, align 4
  store i8 %1, ptr %4, align 1
  %5 = load i32, ptr %3, align 4
  %6 = load i8, ptr %4, align 1
  %7 = call noundef ptr @_ZN27GrowableArrayCHeapAllocator8allocateEii8MEMFLAGS(i32 noundef %5, i32 noundef 8, i8 noundef zeroext %6)
  ret ptr %7
}

; Function Attrs: mustprogress nounwind uwtable
define linkonce_odr hidden void @_ZN26GrowableArrayWithAllocatorIP13InstanceKlass13GrowableArrayIS1_EE4pushERKS1_(ptr noundef nonnull align 8 dereferenceable(16) %0, ptr noundef nonnull align 8 dereferenceable(8) %1) #1 comdat align 2 {
  %3 = alloca ptr, align 8
  %4 = alloca ptr, align 8
  store ptr %0, ptr %3, align 8
  store ptr %1, ptr %4, align 8
  %5 = load ptr, ptr %3, align 8
  %6 = load ptr, ptr %4, align 8
  %7 = call noundef i32 @_ZN26GrowableArrayWithAllocatorIP13InstanceKlass13GrowableArrayIS1_EE6appendERKS1_(ptr noundef nonnull align 8 dereferenceable(16) %5, ptr noundef nonnull align 8 dereferenceable(8) %6)
  ret void
}

; Function Attrs: mustprogress nounwind uwtable
define linkonce_odr hidden void @_ZN13GrowableArrayIP13InstanceKlassEC2Ei8MEMFLAGS(ptr noundef nonnull align 8 dereferenceable(24) %0, i32 noundef %1, i8 noundef zeroext %2) unnamed_addr #1 comdat align 2 {
  %4 = alloca ptr, align 8
  %5 = alloca i32, align 4
  %6 = alloca i8, align 1
  store ptr %0, ptr %4, align 8
  store i32 %1, ptr %5, align 4
  store i8 %2, ptr %6, align 1
  %7 = load ptr, ptr %4, align 8
  %8 = load i32, ptr %5, align 4
  %9 = load i8, ptr %6, align 1
  %10 = call noundef ptr @_ZN13GrowableArrayIP13InstanceKlassE8allocateEi8MEMFLAGS(i32 noundef %8, i8 noundef zeroext %9)
  %11 = load i32, ptr %5, align 4
  call void @_ZN26GrowableArrayWithAllocatorIP13InstanceKlass13GrowableArrayIS1_EEC2EPS1_i(ptr noundef nonnull align 8 dereferenceable(16) %7, ptr noundef %10, i32 noundef %11)
  %12 = getelementptr inbounds %class.GrowableArray.2, ptr %7, i32 0, i32 1
  %13 = load i8, ptr %6, align 1
  call void @_ZN21GrowableArrayMetadataC2E8MEMFLAGS(ptr noundef nonnull align 8 dereferenceable(8) %12, i8 noundef zeroext %13)
  call void @_ZNK13GrowableArrayIP13InstanceKlassE11init_checksEv(ptr noundef nonnull align 8 dereferenceable(24) %7)
  ret void
}

; Function Attrs: mustprogress nounwind uwtable
define hidden void @_ZN24JvmtiCachedClassFieldMap17add_to_class_listEP13InstanceKlass(ptr noundef %0) #1 align 2 {
  %2 = alloca ptr, align 8
  store ptr %0, ptr %2, align 8
  %3 = load ptr, ptr @_ZN24JvmtiCachedClassFieldMap11_class_listE, align 8
  %4 = icmp eq ptr %3, null
  br i1 %4, label %5, label %11

5:                                                ; preds = %1
  %6 = call noundef ptr @_ZN6AnyObjnwEm8MEMFLAGS(i64 noundef 24, i8 noundef zeroext 23) #9
  %7 = icmp eq ptr %6, null
  br i1 %7, label %9, label %8

8:                                                ; preds = %5
  call void @_ZN13GrowableArrayIP13InstanceKlassEC2Ei8MEMFLAGS(ptr noundef nonnull align 8 dereferenceable(24) %6, i32 noundef 200, i8 noundef zeroext 23)
  br label %9

9:                                                ; preds = %8, %5
  %10 = phi ptr [ %6, %8 ], [ null, %5 ]
  store ptr %10, ptr @_ZN24JvmtiCachedClassFieldMap11_class_listE, align 8
  br label %11

11:                                               ; preds = %9, %1
  %12 = load ptr, ptr @_ZN24JvmtiCachedClassFieldMap11_class_listE, align 8
  call void @_ZN26GrowableArrayWithAllocatorIP13InstanceKlass13GrowableArrayIS1_EE4pushERKS1_(ptr noundef nonnull align 8 dereferenceable(16) %12, ptr noundef nonnull align 8 dereferenceable(8) %2)
  ret void
}