; Function Attrs: mustprogress nounwind uwtable
define hidden void @_ZN24JvmtiCachedClassFieldMap17add_to_class_listEP13InstanceKlass(ptr noundef %0) local_unnamed_addr #0 align 2 {
  %2 = load ptr, ptr @_ZN24JvmtiCachedClassFieldMap11_class_listE, align 8
  %3 = icmp eq ptr %2, null
  br i1 %3, label %4, label %13

4:                                                ; preds = %1
  %5 = tail call noundef ptr @_ZN6AnyObjnwEm8MEMFLAGS(i64 noundef 24, i8 noundef zeroext 23) #14
  %6 = icmp eq ptr %5, null
  br i1 %6, label %12, label %7

7:                                                ; preds = %4
  %8 = tail call noundef ptr @_ZN27GrowableArrayCHeapAllocator8allocateEii8MEMFLAGS(i32 noundef 200, i32 noundef 8, i8 noundef zeroext 23) #14
  store i32 0, ptr %5, align 4
  %9 = getelementptr inbounds i8, ptr %5, i64 4
  store i32 200, ptr %9, align 4
  %10 = getelementptr inbounds i8, ptr %5, i64 8
  store ptr %8, ptr %10, align 8
  tail call void @llvm.memset.p0.i64(ptr noundef nonnull align 8 dereferenceable(1600) %8, i8 0, i64 1600, i1 false)
  %11 = getelementptr inbounds i8, ptr %5, i64 16
  store i64 47, ptr %11, align 8
  br label %12

12:                                               ; preds = %7, %4
  store ptr %5, ptr @_ZN24JvmtiCachedClassFieldMap11_class_listE, align 8
  br label %13

13:                                               ; preds = %12, %1
  %14 = phi ptr [ %5, %12 ], [ %2, %1 ]
  %15 = load i32, ptr %14, align 8
  %16 = getelementptr inbounds i8, ptr %14, i64 4
  %17 = load i32, ptr %16, align 4
  %18 = icmp eq i32 %15, %17
  br i1 %18, label %19, label %_ZN26GrowableArrayWithAllocatorIP13InstanceKlass13GrowableArrayIS1_EE4pushERKS1_.exit

19:                                               ; preds = %13
  %20 = add nsw i32 %15, 1
  %21 = icmp sgt i32 %15, -1
  %22 = xor i32 %15, -2147483648
  %23 = and i32 %22, %20
  %24 = icmp eq i32 %23, 0
  %25 = and i1 %21, %24
  %26 = tail call range(i32 0, 33) i32 @llvm.ctlz.i32(i32 %20, i1 true)
  %27 = sub nuw nsw i32 32, %26
  %28 = shl nuw i32 1, %27
  %.0.i.i.i.i.i = select i1 %25, i32 %20, i32 %28
  tail call void @_ZN26GrowableArrayWithAllocatorIP13InstanceKlass13GrowableArrayIS1_EE9expand_toEi(ptr noundef nonnull align 8 dereferenceable(16) %14, i32 noundef %.0.i.i.i.i.i)
  %.pre.i.i = load i32, ptr %14, align 8
  br label %_ZN26GrowableArrayWithAllocatorIP13InstanceKlass13GrowableArrayIS1_EE4pushERKS1_.exit

_ZN26GrowableArrayWithAllocatorIP13InstanceKlass13GrowableArrayIS1_EE4pushERKS1_.exit: ; preds = %13, %19
  %29 = phi i32 [ %.pre.i.i, %19 ], [ %15, %13 ]
  %30 = add nsw i32 %29, 1
  store i32 %30, ptr %14, align 8
  %31 = getelementptr inbounds i8, ptr %14, i64 8
  %32 = load ptr, ptr %31, align 8
  %33 = sext i32 %29 to i64
  %34 = getelementptr inbounds ptr, ptr %32, i64 %33
  store ptr %0, ptr %34, align 8
  ret void
}